target datalayout = "e-m:e-p270:32:32-p271:32:32-p272:64:64-i64:64-i128:128-f80:128-n8:16:32:64-S128"
target triple = "x86_64-pc-linux-gnu"

%struct.langinfo_constant = type { ptr, i32, i32 }

@PyExc_ValueError = external global ptr, align 8
@.str.41 = private unnamed_addr constant [1 x i8] zeroinitializer, align 1
@.str.42 = private unnamed_addr constant [30 x i8] c"unsupported langinfo constant\00", align 1
@PyExc_RuntimeError = external global ptr, align 8
@.str.99 = private unnamed_addr constant [29 x i8] c"faild to get LC_CTYPE locale\00", align 1

; Function Attrs: nounwind uwtable
define internal void @restore_locale(ptr noundef %0) #0 {
  %2 = alloca ptr, align 8
  store ptr %0, ptr %2, align 8, !tbaa !20
  %3 = load ptr, ptr %2, align 8, !tbaa !20
  %4 = icmp ne ptr %3, null
  br i1 %4, label %5, label %9

5:                                                ; preds = %1
  %6 = load ptr, ptr %2, align 8, !tbaa !20
  %7 = call ptr @setlocale(i32 noundef 0, ptr noundef %6) #9
  %8 = load ptr, ptr %2, align 8, !tbaa !20
  call void @PyMem_Free(ptr noundef %8)
  br label %9

9:                                                ; preds = %5, %1
  ret void
}

; Function Attrs: nounwind uwtable
define internal i32 @change_locale(i32 noundef %0, ptr noundef %1) #0 {
  %3 = alloca i32, align 4
  %4 = alloca i32, align 4
  %5 = alloca ptr, align 8
  %6 = alloca ptr, align 8
  %7 = alloca i32, align 4
  store i32 %0, ptr %4, align 4, !tbaa !14
  store ptr %1, ptr %5, align 8, !tbaa !66
  %8 = call ptr @setlocale(i32 noundef 0, ptr noundef null) #9
  %9 = load ptr, ptr %5, align 8, !tbaa !66
  store ptr %8, ptr %9, align 8, !tbaa !20
  %10 = load ptr, ptr %5, align 8, !tbaa !66
  %11 = load ptr, ptr %10, align 8, !tbaa !20
  %12 = icmp ne ptr %11, null
  br i1 %12, label %15, label %13

13:                                               ; preds = %2
  %14 = load ptr, ptr @PyExc_RuntimeError, align 8, !tbaa !4
  call void @PyErr_SetString(ptr noundef %14, ptr noundef @.str.99)
  store i32 -1, ptr %3, align 4
  br label %44

15:                                               ; preds = %2
  %16 = load ptr, ptr %5, align 8, !tbaa !66
  %17 = load ptr, ptr %16, align 8, !tbaa !20
  %18 = call ptr @_PyMem_Strdup(ptr noundef %17)
  %19 = load ptr, ptr %5, align 8, !tbaa !66
  store ptr %18, ptr %19, align 8, !tbaa !20
  %20 = load ptr, ptr %5, align 8, !tbaa !66
  %21 = load ptr, ptr %20, align 8, !tbaa !20
  %22 = icmp ne ptr %21, null
  br i1 %22, label %25, label %23

23:                                               ; preds = %15
  %24 = call ptr @PyErr_NoMemory()
  store i32 -1, ptr %3, align 4
  br label %44

25:                                               ; preds = %15
  call void @llvm.lifetime.start.p0(i64 8, ptr %6) #9
  %26 = load i32, ptr %4, align 4, !tbaa !14
  %27 = call ptr @setlocale(i32 noundef %26, ptr noundef null) #9
  store ptr %27, ptr %6, align 8, !tbaa !20
  %28 = load ptr, ptr %6, align 8, !tbaa !20
  %29 = icmp eq ptr %28, null
  br i1 %29, label %36, label %30

30:                                               ; preds = %25
  %31 = load ptr, ptr %6, align 8, !tbaa !20
  %32 = load ptr, ptr %5, align 8, !tbaa !66
  %33 = load ptr, ptr %32, align 8, !tbaa !20
  %34 = call i32 @strcmp(ptr noundef %31, ptr noundef %33) #10
  %35 = icmp eq i32 %34, 0
  br i1 %35, label %36, label %40

36:                                               ; preds = %30, %25
  %37 = load ptr, ptr %5, align 8, !tbaa !66
  %38 = load ptr, ptr %37, align 8, !tbaa !20
  call void @PyMem_Free(ptr noundef %38)
  %39 = load ptr, ptr %5, align 8, !tbaa !66
  store ptr null, ptr %39, align 8, !tbaa !20
  store i32 0, ptr %3, align 4
  store i32 1, ptr %7, align 4
  br label %43

40:                                               ; preds = %30
  %41 = load ptr, ptr %6, align 8, !tbaa !20
  %42 = call ptr @setlocale(i32 noundef 0, ptr noundef %41) #9
  store i32 1, ptr %3, align 4
  store i32 1, ptr %7, align 4
  br label %43

43:                                               ; preds = %40, %36
  call void @llvm.lifetime.end.p0(i64 8, ptr %6) #9
  br label %44

44:                                               ; preds = %43, %23, %13
  %45 = load i32, ptr %3, align 4
  ret i32 %45
}

; Function Attrs: nounwind uwtable
define internal i32 @is_all_ascii(ptr noundef %0) #0 {
  %2 = alloca i32, align 4
  %3 = alloca ptr, align 8
  store ptr %0, ptr %3, align 8, !tbaa !20
  br label %4

4:                                                ; preds = %15, %1
  %5 = load ptr, ptr %3, align 8, !tbaa !20
  %6 = load i8, ptr %5, align 1, !tbaa !52
  %7 = icmp ne i8 %6, 0
  br i1 %7, label %8, label %18

8:                                                ; preds = %4
  %9 = load ptr, ptr %3, align 8, !tbaa !20
  %10 = load i8, ptr %9, align 1, !tbaa !52
  %11 = zext i8 %10 to i32
  %12 = icmp sgt i32 %11, 127
  br i1 %12, label %13, label %14

13:                                               ; preds = %8
  store i32 0, ptr %2, align 4
  br label %19

14:                                               ; preds = %8
  br label %15

15:                                               ; preds = %14
  %16 = load ptr, ptr %3, align 8, !tbaa !20
  %17 = getelementptr i8, ptr %16, i32 1
  store ptr %17, ptr %3, align 8, !tbaa !20
  br label %4, !llvm.loop !65

18:                                               ; preds = %4
  store i32 1, ptr %2, align 4
  br label %19

19:                                               ; preds = %18, %13
  %20 = load i32, ptr %2, align 4
  ret i32 %20
}

; Function Attrs: nounwind uwtable
define internal ptr @_locale_nl_langinfo_impl(ptr noundef %0, i32 noundef %1) #0 {
  %3 = alloca ptr, align 8
  %4 = alloca ptr, align 8
  %5 = alloca i32, align 4
  %6 = alloca i32, align 4
  %7 = alloca ptr, align 8
  %8 = alloca ptr, align 8
  %9 = alloca i32, align 4
  %10 = alloca ptr, align 8
  store ptr %0, ptr %4, align 8, !tbaa !4
  store i32 %1, ptr %5, align 4, !tbaa !14
  call void @llvm.lifetime.start.p0(i64 4, ptr %6) #9
  store i32 0, ptr %6, align 4, !tbaa !14
  br label %11

11:                                               ; preds = %86, %2
  %12 = load i32, ptr %6, align 4, !tbaa !14
  %13 = sext i32 %12 to i64
  %14 = getelementptr [57 x %struct.langinfo_constant], ptr @langinfo_constants, i64 0, i64 %13
  %15 = getelementptr inbounds nuw %struct.langinfo_constant, ptr %14, i32 0, i32 0
  %16 = load ptr, ptr %15, align 16, !tbaa !60
  %17 = icmp ne ptr %16, null
  br i1 %17, label %18, label %89

18:                                               ; preds = %11
  %19 = load i32, ptr %6, align 4, !tbaa !14
  %20 = sext i32 %19 to i64
  %21 = getelementptr [57 x %struct.langinfo_constant], ptr @langinfo_constants, i64 0, i64 %20
  %22 = getelementptr inbounds nuw %struct.langinfo_constant, ptr %21, i32 0, i32 1
  %23 = load i32, ptr %22, align 8, !tbaa !62
  %24 = load i32, ptr %5, align 4, !tbaa !14
  %25 = icmp eq i32 %23, %24
  br i1 %25, label %26, label %85

26:                                               ; preds = %18
  call void @llvm.lifetime.start.p0(i64 8, ptr %7) #9
  %27 = load i32, ptr %5, align 4, !tbaa !14
  %28 = call ptr @nl_langinfo(i32 noundef %27) #9
  store ptr %28, ptr %7, align 8, !tbaa !20
  %29 = load ptr, ptr %7, align 8, !tbaa !20
  %30 = icmp ne ptr %29, null
  br i1 %30, label %31, label %33

31:                                               ; preds = %26
  %32 = load ptr, ptr %7, align 8, !tbaa !20
  br label %34

33:                                               ; preds = %26
  br label %34

34:                                               ; preds = %33, %31
  %35 = phi ptr [ %32, %31 ], [ @.str.41, %33 ]
  store ptr %35, ptr %7, align 8, !tbaa !20
  call void @llvm.lifetime.start.p0(i64 8, ptr %8) #9
  store ptr null, ptr %8, align 8, !tbaa !20
  %36 = load i32, ptr %6, align 4, !tbaa !14
  %37 = sext i32 %36 to i64
  %38 = getelementptr [57 x %struct.langinfo_constant], ptr @langinfo_constants, i64 0, i64 %37
  %39 = getelementptr inbounds nuw %struct.langinfo_constant, ptr %38, i32 0, i32 2
  %40 = load i32, ptr %39, align 4, !tbaa !63
  %41 = icmp ne i32 %40, 0
  br i1 %41, label %42, label %55

42:                                               ; preds = %34
  %43 = load ptr, ptr %7, align 8, !tbaa !20
  %44 = call i32 @is_all_ascii(ptr noundef %43)
  %45 = icmp ne i32 %44, 0
  br i1 %45, label %55, label %46

46:                                               ; preds = %42
  %47 = load i32, ptr %6, align 4, !tbaa !14
  %48 = sext i32 %47 to i64
  %49 = getelementptr [57 x %struct.langinfo_constant], ptr @langinfo_constants, i64 0, i64 %48
  %50 = getelementptr inbounds nuw %struct.langinfo_constant, ptr %49, i32 0, i32 2
  %51 = load i32, ptr %50, align 4, !tbaa !63
  %52 = call i32 @change_locale(i32 noundef %51, ptr noundef %8)
  %53 = icmp slt i32 %52, 0
  br i1 %53, label %54, label %55

54:                                               ; preds = %46
  store ptr null, ptr %3, align 8
  store i32 1, ptr %9, align 4
  br label %84

55:                                               ; preds = %46, %42, %34
  call void @llvm.lifetime.start.p0(i64 8, ptr %10) #9
  %56 = load i32, ptr %5, align 4, !tbaa !14
  %57 = icmp eq i32 %56, 131119
  br i1 %57, label %58, label %66

58:                                               ; preds = %55
  %59 = load ptr, ptr %7, align 8, !tbaa !20
  %60 = load i8, ptr %59, align 1, !tbaa !52
  %61 = sext i8 %60 to i32
  %62 = icmp ne i32 %61, 0
  br i1 %62, label %63, label %66

63:                                               ; preds = %58
  %64 = load ptr, ptr %7, align 8, !tbaa !20
  %65 = call ptr @decode_strings(ptr noundef %64, i64 noundef 100)
  store ptr %65, ptr %10, align 8, !tbaa !4
  br label %81

66:                                               ; preds = %58, %55
  %67 = load i32, ptr %5, align 4, !tbaa !14
  %68 = icmp eq i32 %67, 131116
  br i1 %68, label %69, label %77

69:                                               ; preds = %66
  %70 = load ptr, ptr %7, align 8, !tbaa !20
  %71 = load i8, ptr %70, align 1, !tbaa !52
  %72 = sext i8 %71 to i32
  %73 = icmp ne i32 %72, 0
  br i1 %73, label %74, label %77

74:                                               ; preds = %69
  %75 = load ptr, ptr %7, align 8, !tbaa !20
  %76 = call ptr @decode_strings(ptr noundef %75, i64 noundef -1)
  store ptr %76, ptr %10, align 8, !tbaa !4
  br label %80

77:                                               ; preds = %69, %66
  %78 = load ptr, ptr %7, align 8, !tbaa !20
  %79 = call ptr @PyUnicode_DecodeLocale(ptr noundef %78, ptr noundef null)
  store ptr %79, ptr %10, align 8, !tbaa !4
  br label %80

80:                                               ; preds = %77, %74
  br label %81

81:                                               ; preds = %80, %63
  %82 = load ptr, ptr %8, align 8, !tbaa !20
  call void @restore_locale(ptr noundef %82)
  %83 = load ptr, ptr %10, align 8, !tbaa !4
  store ptr %83, ptr %3, align 8
  store i32 1, ptr %9, align 4
  call void @llvm.lifetime.end.p0(i64 8, ptr %10) #9
  br label %84

84:                                               ; preds = %81, %54
  call void @llvm.lifetime.end.p0(i64 8, ptr %8) #9
  call void @llvm.lifetime.end.p0(i64 8, ptr %7) #9
  br label %91

85:                                               ; preds = %18
  br label %86

86:                                               ; preds = %85
  %87 = load i32, ptr %6, align 4, !tbaa !14
  %88 = add i32 %87, 1
  store i32 %88, ptr %6, align 4, !tbaa !14
  br label %11, !llvm.loop !64

89:                                               ; preds = %11
  %90 = load ptr, ptr @PyExc_ValueError, align 8, !tbaa !4
  call void @PyErr_SetString(ptr noundef %90, ptr noundef @.str.42)
  store ptr null, ptr %3, align 8
  store i32 1, ptr %9, align 4
  br label %91

91:                                               ; preds = %89, %84
  call void @llvm.lifetime.end.p0(i64 4, ptr %6) #9
  %92 = load ptr, ptr %3, align 8
  ret ptr %92
}