; Function Attrs: nounwind uwtable
define internal fastcc ptr @_locale_nl_langinfo_impl(i32 noundef %0) unnamed_addr #0 {
  br label %4

2:                                                ; preds = %4
  %indvars.iv.next = add nuw nsw i64 %indvars.iv, 1
  %3 = getelementptr [57 x %struct.langinfo_constant], ptr @langinfo_constants, i64 0, i64 %indvars.iv.next
  %exitcond = icmp eq i64 %indvars.iv.next, 56
  br i1 %exitcond, label %50, label %4, !llvm.loop !49

4:                                                ; preds = %1, %2
  %indvars.iv = phi i64 [ 0, %1 ], [ %indvars.iv.next, %2 ]
  %5 = phi ptr [ @langinfo_constants, %1 ], [ %3, %2 ]
  %6 = getelementptr inbounds nuw i8, ptr %5, i64 8
  %7 = load i32, ptr %6, align 8, !tbaa !50
  %8 = icmp eq i32 %7, %0
  br i1 %8, label %9, label %2

9:                                                ; preds = %4
  %10 = tail call ptr @nl_langinfo(i32 noundef %0) #8
  %.not21 = icmp eq ptr %10, null
  %11 = select i1 %.not21, ptr @.str.41, ptr %10
  %12 = getelementptr inbounds nuw i8, ptr %5, i64 12
  %13 = load i32, ptr %12, align 4, !tbaa !52
  %.not22 = icmp eq i32 %13, 0
  br i1 %.not22, label %change_locale.exit, label %14

14:                                               ; preds = %9
  %15 = load i8, ptr %11, align 1, !tbaa !11
  %.not5.i = icmp eq i8 %15, 0
  br i1 %.not5.i, label %change_locale.exit, label %.lr.ph.i

16:                                               ; preds = %.lr.ph.i
  %17 = getelementptr i8, ptr %.06.i, i64 1
  %18 = load i8, ptr %17, align 1, !tbaa !11
  %.not.i = icmp eq i8 %18, 0
  br i1 %.not.i, label %change_locale.exit, label %.lr.ph.i, !llvm.loop !53

.lr.ph.i:                                         ; preds = %14, %16
  %19 = phi i8 [ %18, %16 ], [ %15, %14 ]
  %.06.i = phi ptr [ %17, %16 ], [ %11, %14 ]
  %20 = icmp slt i8 %19, 0
  br i1 %20, label %is_all_ascii.exit, label %16

is_all_ascii.exit:                                ; preds = %.lr.ph.i
  %21 = tail call ptr @setlocale(i32 noundef 0, ptr noundef null) #8
  %.not.i26 = icmp eq ptr %21, null
  br i1 %.not.i26, label %22, label %24

22:                                               ; preds = %is_all_ascii.exit
  %23 = load ptr, ptr @PyExc_RuntimeError, align 8, !tbaa !10
  tail call void @PyErr_SetString(ptr noundef %23, ptr noundef nonnull @.str.99) #8
  br label %restore_locale.exit

24:                                               ; preds = %is_all_ascii.exit
  %25 = tail call ptr @_PyMem_Strdup(ptr noundef nonnull %21) #8
  %.not14.i = icmp eq ptr %25, null
  br i1 %.not14.i, label %26, label %28

26:                                               ; preds = %24
  %27 = tail call ptr @PyErr_NoMemory() #8
  br label %restore_locale.exit

28:                                               ; preds = %24
  %29 = tail call ptr @setlocale(i32 noundef %13, ptr noundef null) #8
  %30 = icmp eq ptr %29, null
  br i1 %30, label %34, label %31

31:                                               ; preds = %28
  %32 = tail call i32 @strcmp(ptr noundef nonnull dereferenceable(1) %29, ptr noundef nonnull dereferenceable(1) %25) #9
  %33 = icmp eq i32 %32, 0
  br i1 %33, label %34, label %35

34:                                               ; preds = %31, %28
  tail call void @PyMem_Free(ptr noundef nonnull %25) #8
  br label %change_locale.exit

35:                                               ; preds = %31
  %36 = tail call ptr @setlocale(i32 noundef 0, ptr noundef nonnull %29) #8
  br label %change_locale.exit

change_locale.exit:                               ; preds = %16, %14, %35, %34, %9
  %.12 = phi ptr [ null, %9 ], [ null, %34 ], [ %25, %35 ], [ null, %14 ], [ null, %16 ]
  switch i32 %0, label %45 [
    i32 131119, label %37
    i32 131116, label %41
  ]

37:                                               ; preds = %change_locale.exit
  %38 = load i8, ptr %11, align 1, !tbaa !11
  %.not24 = icmp eq i8 %38, 0
  br i1 %.not24, label %45, label %39

39:                                               ; preds = %37
  %40 = tail call fastcc ptr @decode_strings(ptr noundef nonnull %11, i64 noundef 100)
  br label %47

41:                                               ; preds = %change_locale.exit
  %42 = load i8, ptr %11, align 1, !tbaa !11
  %.not25 = icmp eq i8 %42, 0
  br i1 %.not25, label %45, label %43

43:                                               ; preds = %41
  %44 = tail call fastcc ptr @decode_strings(ptr noundef nonnull %11, i64 noundef -1)
  br label %47

45:                                               ; preds = %37, %change_locale.exit, %41
  %46 = tail call ptr @PyUnicode_DecodeLocale(ptr noundef nonnull %11, ptr noundef null) #8
  br label %47

47:                                               ; preds = %43, %45, %39
  %.0 = phi ptr [ %40, %39 ], [ %44, %43 ], [ %46, %45 ]
  %.not.i27 = icmp eq ptr %.12, null
  br i1 %.not.i27, label %restore_locale.exit, label %48

48:                                               ; preds = %47
  %49 = tail call ptr @setlocale(i32 noundef 0, ptr noundef nonnull %.12) #8
  tail call void @PyMem_Free(ptr noundef nonnull %.12) #8
  br label %restore_locale.exit

50:                                               ; preds = %2
  %51 = load ptr, ptr @PyExc_ValueError, align 8, !tbaa !10
  tail call void @PyErr_SetString(ptr noundef %51, ptr noundef nonnull @.str.42) #8
  br label %restore_locale.exit

restore_locale.exit:                              ; preds = %22, %26, %47, %48, %50
  %.1 = phi ptr [ null, %50 ], [ %.0, %47 ], [ %.0, %48 ], [ null, %26 ], [ null, %22 ]
  ret ptr %.1
}